; Function Attrs: mustprogress uwtable
define hidden void @_ZN5osgeo4proj3crs20DerivedGeographicCRSC1ERKS2_(ptr noundef nonnull align 8 dereferenceable(120) %0, ptr noundef nonnull align 8 dereferenceable(120) %1) unnamed_addr #6 align 2 personality ptr @__gxx_personality_v0 {
  %3 = getelementptr inbounds i8, ptr %0, i64 48
  %4 = getelementptr inbounds i8, ptr %1, i64 48
  tail call void @_ZN5osgeo4proj3crs9SingleCRSC2ERKS2_(ptr noundef nonnull align 8 dereferenceable(72) %3, ptr noundef nonnull align 8 dereferenceable(72) %4)
  invoke void @_ZN5osgeo4proj3crs13GeographicCRSC2ERKS2_(ptr noundef nonnull align 8 dereferenceable(24) %0, ptr noundef nonnull getelementptr inbounds ([21 x ptr], ptr @_ZTTN5osgeo4proj3crs20DerivedGeographicCRSE, i64 0, i64 1), ptr noundef nonnull align 8 dereferenceable(24) %1)
          to label %5 unwind label %13

5:                                                ; preds = %2
  %6 = getelementptr inbounds i8, ptr %0, i64 24
  %7 = getelementptr inbounds i8, ptr %1, i64 24
  invoke void @_ZN5osgeo4proj3crs10DerivedCRSC2ERKS2_(ptr noundef nonnull align 8 dereferenceable(16) %6, ptr noundef nonnull getelementptr inbounds ([21 x ptr], ptr @_ZTTN5osgeo4proj3crs20DerivedGeographicCRSE, i64 0, i64 11), ptr noundef nonnull align 8 dereferenceable(16) %7)
          to label %8 unwind label %15

8:                                                ; preds = %5
  store ptr getelementptr inbounds inrange(-24, 72) ({ [12 x ptr], [8 x ptr], [15 x ptr], [5 x ptr], [5 x ptr], [5 x ptr] }, ptr @_ZTVN5osgeo4proj3crs20DerivedGeographicCRSE, i64 0, i32 0, i64 3), ptr %0, align 8
  store ptr getelementptr inbounds inrange(-72, 48) ({ [12 x ptr], [8 x ptr], [15 x ptr], [5 x ptr], [5 x ptr], [5 x ptr] }, ptr @_ZTVN5osgeo4proj3crs20DerivedGeographicCRSE, i64 0, i32 2, i64 9), ptr %3, align 8
  %9 = getelementptr inbounds i8, ptr %0, i64 64
  store ptr getelementptr inbounds inrange(-16, 24) ({ [12 x ptr], [8 x ptr], [15 x ptr], [5 x ptr], [5 x ptr], [5 x ptr] }, ptr @_ZTVN5osgeo4proj3crs20DerivedGeographicCRSE, i64 0, i32 3, i64 2), ptr %9, align 8
  %10 = getelementptr inbounds i8, ptr %0, i64 72
  store ptr getelementptr inbounds inrange(-16, 24) ({ [12 x ptr], [8 x ptr], [15 x ptr], [5 x ptr], [5 x ptr], [5 x ptr] }, ptr @_ZTVN5osgeo4proj3crs20DerivedGeographicCRSE, i64 0, i32 4, i64 2), ptr %10, align 8
  %11 = getelementptr inbounds i8, ptr %0, i64 96
  store ptr getelementptr inbounds inrange(-16, 24) ({ [12 x ptr], [8 x ptr], [15 x ptr], [5 x ptr], [5 x ptr], [5 x ptr] }, ptr @_ZTVN5osgeo4proj3crs20DerivedGeographicCRSE, i64 0, i32 5, i64 2), ptr %11, align 8
  store ptr getelementptr inbounds inrange(-24, 40) ({ [12 x ptr], [8 x ptr], [15 x ptr], [5 x ptr], [5 x ptr], [5 x ptr] }, ptr @_ZTVN5osgeo4proj3crs20DerivedGeographicCRSE, i64 0, i32 1, i64 3), ptr %6, align 8
  %12 = getelementptr inbounds i8, ptr %0, i64 40
  store ptr null, ptr %12, align 8
  ret void

13:                                               ; preds = %2
  %14 = landingpad { ptr, i32 }
          cleanup
  br label %17

15:                                               ; preds = %5
  %16 = landingpad { ptr, i32 }
          cleanup
  tail call void @_ZN5osgeo4proj3crs13GeographicCRSD2Ev(ptr noundef nonnull align 8 dereferenceable(24) %0, ptr noundef nonnull getelementptr inbounds ([21 x ptr], ptr @_ZTTN5osgeo4proj3crs20DerivedGeographicCRSE, i64 0, i64 1)) #37
  br label %17

17:                                               ; preds = %15, %13
  %.pn = phi { ptr, i32 } [ %16, %15 ], [ %14, %13 ]
  tail call void @_ZN5osgeo4proj3crs9SingleCRSD2Ev(ptr noundef nonnull align 8 dereferenceable(72) %3) #37
  resume { ptr, i32 } %.pn
}